target datalayout = "e-m:e-p270:32:32-p271:32:32-p272:64:64-i64:64-i128:128-f80:128-n8:16:32:64-S128"
target triple = "x86_64-pc-linux-gnu"

%"struct.duckdb_yyjson::yyjson_alc" = type { ptr, ptr, ptr, ptr }
%"struct.duckdb_yyjson::yyjson_val_pool" = type { ptr, ptr, i64, i64, ptr }
%"struct.duckdb_yyjson::yyjson_val_chunk" = type { ptr, i64 }
%"struct.duckdb_yyjson::yyjson_mut_val" = type { i64, %"union.duckdb_yyjson::yyjson_val_uni", ptr }
%"union.duckdb_yyjson::yyjson_val_uni" = type { i64 }

; Function Attrs: mustprogress uwtable
define noundef zeroext i1 @_ZN13duckdb_yyjson27unsafe_yyjson_val_pool_growEPNS_15yyjson_val_poolEPKNS_10yyjson_alcEm(ptr noundef %0, ptr noundef %1, i64 noundef %2) #1 {
  %4 = alloca i1, align 1
  %5 = alloca ptr, align 8
  %6 = alloca ptr, align 8
  %7 = alloca i64, align 8
  %8 = alloca ptr, align 8
  %9 = alloca i64, align 8
  %10 = alloca i64, align 8
  %11 = alloca i32, align 4
  store ptr %0, ptr %5, align 8, !tbaa !57
  store ptr %1, ptr %6, align 8, !tbaa !3
  store i64 %2, ptr %7, align 8, !tbaa !9
  call void @llvm.lifetime.start.p0(i64 8, ptr %8) #15
  call void @llvm.lifetime.start.p0(i64 8, ptr %9) #15
  call void @llvm.lifetime.start.p0(i64 8, ptr %10) #15
  store i64 768614336404564649, ptr %10, align 8, !tbaa !9
  %12 = load i64, ptr %7, align 8, !tbaa !9
  %13 = load i64, ptr %10, align 8, !tbaa !9
  %14 = icmp ugt i64 %12, %13
  %15 = xor i1 %14, true
  %16 = xor i1 %15, true
  %17 = zext i1 %16 to i64
  %18 = call i64 @llvm.expect.i64(i64 %17, i64 0)
  %19 = icmp ne i64 %18, 0
  br i1 %19, label %20, label %21

20:                                               ; preds = %3
  store i1 false, ptr %4, align 1
  store i32 1, ptr %11, align 4
  br label %108

21:                                               ; preds = %3
  %22 = load i64, ptr %7, align 8, !tbaa !9
  %23 = add i64 %22, 1
  %24 = mul i64 %23, 24
  store i64 %24, ptr %9, align 8, !tbaa !9
  %25 = load ptr, ptr %5, align 8, !tbaa !57
  %26 = getelementptr inbounds nuw %"struct.duckdb_yyjson::yyjson_val_pool", ptr %25, i32 0, i32 2
  %27 = load i64, ptr %26, align 8, !tbaa !59
  %28 = load i64, ptr %9, align 8, !tbaa !9
  %29 = icmp ugt i64 %27, %28
  br i1 %29, label %30, label %34

30:                                               ; preds = %21
  %31 = load ptr, ptr %5, align 8, !tbaa !57
  %32 = getelementptr inbounds nuw %"struct.duckdb_yyjson::yyjson_val_pool", ptr %31, i32 0, i32 2
  %33 = load i64, ptr %32, align 8, !tbaa !59
  br label %36

34:                                               ; preds = %21
  %35 = load i64, ptr %9, align 8, !tbaa !9
  br label %36

36:                                               ; preds = %34, %30
  %37 = phi i64 [ %33, %30 ], [ %35, %34 ]
  store i64 %37, ptr %9, align 8, !tbaa !9
  %38 = load ptr, ptr %6, align 8, !tbaa !3
  %39 = getelementptr inbounds nuw %"struct.duckdb_yyjson::yyjson_alc", ptr %38, i32 0, i32 0
  %40 = load ptr, ptr %39, align 8, !tbaa !22
  %41 = load ptr, ptr %6, align 8, !tbaa !3
  %42 = getelementptr inbounds nuw %"struct.duckdb_yyjson::yyjson_alc", ptr %41, i32 0, i32 3
  %43 = load ptr, ptr %42, align 8, !tbaa !26
  %44 = load i64, ptr %9, align 8, !tbaa !9
  %45 = call noundef ptr %40(ptr noundef %43, i64 noundef %44)
  store ptr %45, ptr %8, align 8, !tbaa !63
  %46 = load ptr, ptr %8, align 8, !tbaa !63
  %47 = icmp ne ptr %46, null
  %48 = xor i1 %47, true
  %49 = xor i1 %48, true
  %50 = xor i1 %49, true
  %51 = zext i1 %50 to i64
  %52 = call i64 @llvm.expect.i64(i64 %51, i64 0)
  %53 = icmp ne i64 %52, 0
  br i1 %53, label %54, label %55

54:                                               ; preds = %36
  store i1 false, ptr %4, align 1
  store i32 1, ptr %11, align 4
  br label %108

55:                                               ; preds = %36
  %56 = load ptr, ptr %5, align 8, !tbaa !57
  %57 = getelementptr inbounds nuw %"struct.duckdb_yyjson::yyjson_val_pool", ptr %56, i32 0, i32 4
  %58 = load ptr, ptr %57, align 8, !tbaa !64
  %59 = load ptr, ptr %8, align 8, !tbaa !63
  %60 = getelementptr inbounds nuw %"struct.duckdb_yyjson::yyjson_val_chunk", ptr %59, i32 0, i32 0
  store ptr %58, ptr %60, align 8, !tbaa !65
  %61 = load i64, ptr %9, align 8, !tbaa !9
  %62 = load ptr, ptr %8, align 8, !tbaa !63
  %63 = getelementptr inbounds nuw %"struct.duckdb_yyjson::yyjson_val_chunk", ptr %62, i32 0, i32 1
  store i64 %61, ptr %63, align 8, !tbaa !67
  %64 = load ptr, ptr %8, align 8, !tbaa !63
  %65 = load ptr, ptr %5, align 8, !tbaa !57
  %66 = getelementptr inbounds nuw %"struct.duckdb_yyjson::yyjson_val_pool", ptr %65, i32 0, i32 4
  store ptr %64, ptr %66, align 8, !tbaa !64
  %67 = load ptr, ptr %8, align 8, !tbaa !63
  %68 = getelementptr inbounds %"struct.duckdb_yyjson::yyjson_mut_val", ptr %67, i64 1
  %69 = load ptr, ptr %5, align 8, !tbaa !57
  %70 = getelementptr inbounds nuw %"struct.duckdb_yyjson::yyjson_val_pool", ptr %69, i32 0, i32 0
  store ptr %68, ptr %70, align 8, !tbaa !68
  %71 = load ptr, ptr %8, align 8, !tbaa !63
  %72 = load i64, ptr %9, align 8, !tbaa !9
  %73 = getelementptr inbounds nuw i8, ptr %71, i64 %72
  %74 = load ptr, ptr %5, align 8, !tbaa !57
  %75 = getelementptr inbounds nuw %"struct.duckdb_yyjson::yyjson_val_pool", ptr %74, i32 0, i32 1
  store ptr %73, ptr %75, align 8, !tbaa !69
  %76 = load ptr, ptr %5, align 8, !tbaa !57
  %77 = getelementptr inbounds nuw %"struct.duckdb_yyjson::yyjson_val_pool", ptr %76, i32 0, i32 2
  %78 = load i64, ptr %77, align 8, !tbaa !59
  %79 = mul i64 %78, 2
  %80 = load ptr, ptr %5, align 8, !tbaa !57
  %81 = getelementptr inbounds nuw %"struct.duckdb_yyjson::yyjson_val_pool", ptr %80, i32 0, i32 3
  %82 = load i64, ptr %81, align 8, !tbaa !70
  %83 = icmp ult i64 %79, %82
  br i1 %83, label %84, label %89

84:                                               ; preds = %55
  %85 = load ptr, ptr %5, align 8, !tbaa !57
  %86 = getelementptr inbounds nuw %"struct.duckdb_yyjson::yyjson_val_pool", ptr %85, i32 0, i32 2
  %87 = load i64, ptr %86, align 8, !tbaa !59
  %88 = mul i64 %87, 2
  br label %93

89:                                               ; preds = %55
  %90 = load ptr, ptr %5, align 8, !tbaa !57
  %91 = getelementptr inbounds nuw %"struct.duckdb_yyjson::yyjson_val_pool", ptr %90, i32 0, i32 3
  %92 = load i64, ptr %91, align 8, !tbaa !70
  br label %93

93:                                               ; preds = %89, %84
  %94 = phi i64 [ %88, %84 ], [ %92, %89 ]
  store i64 %94, ptr %9, align 8, !tbaa !9
  %95 = load i64, ptr %9, align 8, !tbaa !9
  %96 = load ptr, ptr %5, align 8, !tbaa !57
  %97 = getelementptr inbounds nuw %"struct.duckdb_yyjson::yyjson_val_pool", ptr %96, i32 0, i32 2
  %98 = load i64, ptr %97, align 8, !tbaa !59
  %99 = icmp ult i64 %95, %98
  br i1 %99, label %100, label %104

100:                                              ; preds = %93
  %101 = load ptr, ptr %5, align 8, !tbaa !57
  %102 = getelementptr inbounds nuw %"struct.duckdb_yyjson::yyjson_val_pool", ptr %101, i32 0, i32 3
  %103 = load i64, ptr %102, align 8, !tbaa !70
  store i64 %103, ptr %9, align 8, !tbaa !9
  br label %104

104:                                              ; preds = %100, %93
  %105 = load i64, ptr %9, align 8, !tbaa !9
  %106 = load ptr, ptr %5, align 8, !tbaa !57
  %107 = getelementptr inbounds nuw %"struct.duckdb_yyjson::yyjson_val_pool", ptr %106, i32 0, i32 2
  store i64 %105, ptr %107, align 8, !tbaa !59
  store i1 true, ptr %4, align 1
  store i32 1, ptr %11, align 4
  br label %108

108:                                              ; preds = %104, %54, %20
  call void @llvm.lifetime.end.p0(i64 8, ptr %10) #15
  call void @llvm.lifetime.end.p0(i64 8, ptr %9) #15
  call void @llvm.lifetime.end.p0(i64 8, ptr %8) #15
  %109 = load i1, ptr %4, align 1
  ret i1 %109
}