; Function Attrs: mustprogress uwtable
define noundef zeroext i1 @_ZN13duckdb_yyjson27unsafe_yyjson_val_pool_growEPNS_15yyjson_val_poolEPKNS_10yyjson_alcEm(ptr noundef captures(none) %0, ptr noundef readonly captures(none) %1, i64 noundef %2) local_unnamed_addr #10 {
  %4 = icmp ugt i64 %2, 768614336404564649
  br i1 %4, label %26, label %5, !prof !3

5:                                                ; preds = %3
  %6 = mul nuw i64 %2, 24
  %7 = add nuw i64 %6, 24
  %8 = getelementptr inbounds nuw i8, ptr %0, i64 16
  %9 = load i64, ptr %8, align 8, !tbaa !51
  %. = tail call i64 @llvm.umax.i64(i64 %9, i64 %7)
  %10 = load ptr, ptr %1, align 8, !tbaa !17
  %11 = getelementptr inbounds nuw i8, ptr %1, i64 24
  %12 = load ptr, ptr %11, align 8, !tbaa !21
  %13 = tail call noundef ptr %10(ptr noundef %12, i64 noundef %.)
  %.not = icmp eq ptr %13, null
  br i1 %.not, label %26, label %14, !prof !3

14:                                               ; preds = %5
  %15 = getelementptr inbounds nuw i8, ptr %0, i64 32
  %16 = load ptr, ptr %15, align 8, !tbaa !55
  store ptr %16, ptr %13, align 8, !tbaa !56
  %17 = getelementptr inbounds nuw i8, ptr %13, i64 8
  store i64 %., ptr %17, align 8, !tbaa !58
  store ptr %13, ptr %15, align 8, !tbaa !55
  %18 = getelementptr inbounds nuw i8, ptr %13, i64 24
  store ptr %18, ptr %0, align 8, !tbaa !59
  %19 = getelementptr inbounds nuw i8, ptr %13, i64 %.
  %20 = getelementptr inbounds nuw i8, ptr %0, i64 8
  store ptr %19, ptr %20, align 8, !tbaa !60
  %21 = load i64, ptr %8, align 8, !tbaa !51
  %22 = shl i64 %21, 1
  %23 = getelementptr inbounds nuw i8, ptr %0, i64 24
  %24 = load i64, ptr %23, align 8, !tbaa !61
  %.38 = tail call i64 @llvm.umin.i64(i64 %22, i64 %24)
  %25 = icmp ult i64 %.38, %21
  %spec.select = select i1 %25, i64 %24, i64 %.38
  store i64 %spec.select, ptr %8, align 8, !tbaa !51
  br label %26

26:                                               ; preds = %5, %3, %14
  %.0 = phi i1 [ true, %14 ], [ false, %3 ], [ false, %5 ]
  ret i1 %.0
}